target datalayout = "e-m:e-p270:32:32-p271:32:32-p272:64:64-i64:64-i128:128-f80:128-n8:16:32:64-S128"
target triple = "x86_64-pc-linux-gnu"

%struct.AVFilterContext = type { ptr, ptr, ptr, ptr, ptr, i32, ptr, ptr, i32, ptr, ptr, i32, i32, ptr, ptr, ptr, ptr, i32, ptr, i32, i32 }
%struct.FilterLink = type { %struct.AVFilterLink, ptr, i64, i64, i32, i32, i64, i64, i64, i64, %struct.AVRational, ptr }
%struct.AVFilterLink = type { ptr, ptr, ptr, ptr, i32, i32, i32, i32, %struct.AVRational, i32, i32, i32, %struct.AVChannelLayout, %struct.AVRational, ptr, i32, %struct.AVFilterFormatsConfig, %struct.AVFilterFormatsConfig }
%struct.AVChannelLayout = type { i32, i32, %union.anon.0, ptr }
%union.anon.0 = type { i64 }
%struct.AVFilterFormatsConfig = type { ptr, ptr, ptr, ptr, ptr }
%struct.AVRational = type { i32, i32 }
%struct.AVBufferRef = type { ptr, ptr, i64 }
%struct.AVHWFramesContext = type { ptr, ptr, ptr, ptr, ptr, ptr, ptr, i32, i32, i32, i32, i32 }

@.str = private unnamed_addr constant [30 x i8] c"Assertion %s failed at %s:%d\0A\00", align 1
@.str.2 = private unnamed_addr constant [23 x i8] c"libavfilter/avfilter.c\00", align 1
@.str.40 = private unnamed_addr constant [17 x i8] c"l->hw_frames_ctx\00", align 1

; Function Attrs: inlinehint nounwind uwtable
define internal ptr @ff_filter_link(ptr noundef %0) #4 {
  %2 = alloca ptr, align 8
  store ptr %0, ptr %2, align 8, !tbaa !26
  %3 = load ptr, ptr %2, align 8, !tbaa !26
  ret ptr %3
}

; Function Attrs: nounwind uwtable
define i32 @ff_filter_init_hw_frames(ptr noundef %0, ptr noundef %1, i32 noundef %2) #0 {
  %4 = alloca ptr, align 8
  %5 = alloca ptr, align 8
  %6 = alloca i32, align 4
  %7 = alloca ptr, align 8
  %8 = alloca ptr, align 8
  store ptr %0, ptr %4, align 8, !tbaa !4
  store ptr %1, ptr %5, align 8, !tbaa !26
  store i32 %2, ptr %6, align 4, !tbaa !19
  call void @llvm.lifetime.start.p0(i64 8, ptr %7) #11
  %9 = load ptr, ptr %5, align 8, !tbaa !26
  %10 = call ptr @ff_filter_link(ptr noundef %9)
  store ptr %10, ptr %7, align 8, !tbaa !114
  call void @llvm.lifetime.start.p0(i64 8, ptr %8) #11
  br label %11

11:                                               ; preds = %3
  %12 = load ptr, ptr %7, align 8, !tbaa !114
  %13 = getelementptr inbounds nuw %struct.FilterLink, ptr %12, i32 0, i32 11
  %14 = load ptr, ptr %13, align 8, !tbaa !117
  %15 = icmp ne ptr %14, null
  br i1 %15, label %17, label %16

16:                                               ; preds = %11
  call void (ptr, i32, ptr, ...) @av_log(ptr noundef null, i32 noundef 0, ptr noundef @.str, ptr noundef @.str.40, ptr noundef @.str.2, i32 noundef 1646)
  call void @abort() #12
  unreachable

17:                                               ; preds = %11
  br label %18

18:                                               ; preds = %17
  br label %19

19:                                               ; preds = %18
  %20 = load ptr, ptr %7, align 8, !tbaa !114
  %21 = getelementptr inbounds nuw %struct.FilterLink, ptr %20, i32 0, i32 11
  %22 = load ptr, ptr %21, align 8, !tbaa !117
  %23 = getelementptr inbounds nuw %struct.AVBufferRef, ptr %22, i32 0, i32 1
  %24 = load ptr, ptr %23, align 8, !tbaa !221
  store ptr %24, ptr %8, align 8, !tbaa !224
  %25 = load ptr, ptr %8, align 8, !tbaa !224
  %26 = getelementptr inbounds nuw %struct.AVHWFramesContext, ptr %25, i32 0, i32 7
  %27 = load i32, ptr %26, align 8, !tbaa !226
  %28 = icmp eq i32 %27, 0
  br i1 %28, label %29, label %30

29:                                               ; preds = %19
  br label %48

30:                                               ; preds = %19
  %31 = load ptr, ptr %4, align 8, !tbaa !4
  %32 = getelementptr inbounds nuw %struct.AVFilterContext, ptr %31, i32 0, i32 20
  %33 = load i32, ptr %32, align 4, !tbaa !230
  %34 = icmp sge i32 %33, 0
  br i1 %34, label %35, label %43

35:                                               ; preds = %30
  %36 = load ptr, ptr %4, align 8, !tbaa !4
  %37 = getelementptr inbounds nuw %struct.AVFilterContext, ptr %36, i32 0, i32 20
  %38 = load i32, ptr %37, align 4, !tbaa !230
  %39 = load ptr, ptr %8, align 8, !tbaa !224
  %40 = getelementptr inbounds nuw %struct.AVHWFramesContext, ptr %39, i32 0, i32 7
  %41 = load i32, ptr %40, align 8, !tbaa !226
  %42 = add nsw i32 %41, %38
  store i32 %42, ptr %40, align 8, !tbaa !226
  br label %47

43:                                               ; preds = %30
  %44 = load i32, ptr %6, align 4, !tbaa !19
  %45 = load ptr, ptr %8, align 8, !tbaa !224
  %46 = getelementptr inbounds nuw %struct.AVHWFramesContext, ptr %45, i32 0, i32 7
  store i32 %44, ptr %46, align 8, !tbaa !226
  br label %47

47:                                               ; preds = %43, %35
  br label %48

48:                                               ; preds = %47, %29
  call void @llvm.lifetime.end.p0(i64 8, ptr %8) #11
  call void @llvm.lifetime.end.p0(i64 8, ptr %7) #11
  ret i32 0
}