; Function Attrs: nounwind uwtable
define noundef i32 @ff_filter_init_hw_frames(ptr noundef readonly captures(none) %0, ptr noundef readonly captures(none) %1, i32 noundef %2) local_unnamed_addr #0 {
  %4 = getelementptr inbounds nuw i8, ptr %1, i64 272
  %5 = load ptr, ptr %4, align 8, !tbaa !97
  %.not = icmp eq ptr %5, null
  br i1 %.not, label %6, label %7

6:                                                ; preds = %3
  tail call void (ptr, i32, ptr, ...) @av_log(ptr noundef null, i32 noundef 0, ptr noundef nonnull @.str, ptr noundef nonnull @.str.40, ptr noundef nonnull @.str.2, i32 noundef 1646) #15
  tail call void @abort() #16
  unreachable

7:                                                ; preds = %3
  %8 = getelementptr inbounds nuw i8, ptr %5, i64 8
  %9 = load ptr, ptr %8, align 8, !tbaa !190
  %10 = getelementptr inbounds nuw i8, ptr %9, i64 56
  %11 = load i32, ptr %10, align 8, !tbaa !193
  %12 = icmp eq i32 %11, 0
  br i1 %12, label %17, label %.sink.split

.sink.split:                                      ; preds = %7
  %13 = getelementptr inbounds nuw i8, ptr %0, i64 148
  %14 = load i32, ptr %13, align 4, !tbaa !197
  %15 = add nsw i32 %14, %11
  %16 = icmp slt i32 %14, 0
  %.sink = select i1 %16, i32 %2, i32 %15
  store i32 %.sink, ptr %10, align 8, !tbaa !193
  br label %17

17:                                               ; preds = %.sink.split, %7
  ret i32 0
}